; Function Attrs: nounwind sspstrong uwtable
define internal noundef i64 @rb_gzfile_set_orig_name(i64 noundef %0, i64 noundef returned %1) #0 {
  %3 = tail call ptr @rb_check_typeddata(i64 noundef %0, ptr noundef nonnull @gzfile_data_type) #18
  %4 = load i64, ptr %3, align 8, !tbaa !113
  %5 = and i64 %4, 1
  %.not.i = icmp eq i64 %5, 0
  br i1 %.not.i, label %6, label %get_gzfile.exit

6:                                                ; preds = %2
  %7 = load i64, ptr @cGzError, align 8, !tbaa !6
  tail call void (i64, ptr, ...) @rb_raise(i64 noundef %7, ptr noundef nonnull @.str.165) #19
  unreachable

get_gzfile.exit:                                  ; preds = %2
  %8 = and i64 %4, 256
  %.not = icmp eq i64 %8, 0
  br i1 %.not, label %11, label %9

9:                                                ; preds = %get_gzfile.exit
  %10 = load i64, ptr @cGzError, align 8, !tbaa !6
  tail call void (i64, ptr, ...) @rb_raise(i64 noundef %10, ptr noundef nonnull @.str.166) #19
  unreachable

11:                                               ; preds = %get_gzfile.exit
  %12 = tail call i64 @rb_str_to_str(i64 noundef %1) #18
  %13 = tail call i64 @rb_str_dup(i64 noundef %12) #18
  %14 = inttoptr i64 %13 to ptr
  %15 = load i64, ptr %14, align 8, !tbaa !16, !noalias !125
  %16 = and i64 %15, 8192
  %.not.i.i = icmp eq i64 %16, 0
  %17 = getelementptr inbounds nuw i8, ptr %14, i64 24
  br i1 %.not.i.i, label %RSTRING_PTR.exit, label %RSTRING_PTR.exit.thread

RSTRING_PTR.exit:                                 ; preds = %11
  %18 = getelementptr inbounds nuw i8, ptr %14, i64 16
  %19 = load i64, ptr %18, align 8, !tbaa !21
  %20 = tail call ptr @memchr(ptr noundef nonnull %17, i32 noundef 0, i64 noundef %19) #22
  %.not11 = icmp eq ptr %20, null
  br i1 %.not11, label %29, label %RSTRING_PTR.exit15

RSTRING_PTR.exit.thread:                          ; preds = %11
  %.sroa.2.0.copyload.i = load ptr, ptr %17, align 8
  %21 = getelementptr inbounds nuw i8, ptr %14, i64 16
  %22 = load i64, ptr %21, align 8, !tbaa !21
  %23 = tail call ptr @memchr(ptr noundef %.sroa.2.0.copyload.i, i32 noundef 0, i64 noundef %22) #22
  %.not1117 = icmp eq ptr %23, null
  br i1 %.not1117, label %29, label %RSTRING_PTR.exit15

RSTRING_PTR.exit15:                               ; preds = %RSTRING_PTR.exit.thread, %RSTRING_PTR.exit
  %24 = phi ptr [ %20, %RSTRING_PTR.exit ], [ %23, %RSTRING_PTR.exit.thread ]
  %.sroa.2.0.i14 = phi ptr [ %17, %RSTRING_PTR.exit ], [ %.sroa.2.0.copyload.i, %RSTRING_PTR.exit.thread ]
  %25 = ptrtoint ptr %24 to i64
  %26 = ptrtoint ptr %.sroa.2.0.i14 to i64
  %27 = sub i64 %25, %26
  %28 = tail call i64 @rb_str_resize(i64 noundef %13, i64 noundef %27) #18
  br label %29

29:                                               ; preds = %RSTRING_PTR.exit.thread, %RSTRING_PTR.exit15, %RSTRING_PTR.exit
  %30 = getelementptr inbounds nuw i8, ptr %3, i64 176
  store i64 %13, ptr %30, align 8, !tbaa !122
  ret i64 %1
}